; Function Attrs: mustprogress uwtable
define hidden noundef zeroext i1 @_Z13is_valid_UTF8RKNSt7__cxx1112basic_stringIcSt11char_traitsIcESaIcEEE(ptr nocapture noundef nonnull readonly align 8 dereferenceable(32) %0) local_unnamed_addr #4 {
  %2 = alloca %"class.__gnu_cxx::__normal_iterator", align 8
  call void @llvm.lifetime.start.p0(i64 8, ptr nonnull %2) #20
  %3 = load ptr, ptr %0, align 8, !tbaa !18
  store ptr %3, ptr %2, align 8
  %4 = getelementptr inbounds nuw i8, ptr %0, i64 8
  br label %5

5:                                                ; preds = %10, %1
  %6 = load ptr, ptr %0, align 8, !tbaa !18
  %7 = load i64, ptr %4, align 8, !tbaa !21
  %8 = getelementptr inbounds nuw i8, ptr %6, i64 %7
  %9 = load ptr, ptr %2, align 8, !tbaa !15
  %.not = icmp eq ptr %9, %8
  br i1 %.not, label %14, label %10

10:                                               ; preds = %5
  %11 = call noundef i32 @_ZN5boost6nowide3utf10utf_traitsIcLi1EE6decodeIN9__gnu_cxx17__normal_iteratorIPKcNSt7__cxx1112basic_stringIcSt11char_traitsIcESaIcEEEEEEEjRT_SG_(ptr noundef nonnull align 8 dereferenceable(8) %2, ptr %8)
  %12 = icmp ult i32 %11, 1114112
  %13 = and i32 %11, 2095104
  %or.cond.i = icmp ne i32 %13, 55296
  %.0.i = and i1 %12, %or.cond.i
  br i1 %.0.i, label %5, label %14, !llvm.loop !54

14:                                               ; preds = %5, %10
  call void @llvm.lifetime.end.p0(i64 8, ptr nonnull %2) #20
  ret i1 %.not
}